; Function Attrs: mustprogress nofree norecurse nosync nounwind willreturn memory(argmem: read) uwtable
define hidden noundef range(i32 0, 1076) i32 @_ZN11hwf_manager17prev_power_of_twoERK3hwf(ptr noundef nonnull readnone align 8 captures(none) dereferenceable(736) %0, ptr noundef nonnull readonly align 8 captures(none) dereferenceable(8) %1) local_unnamed_addr #10 align 2 {
  %.0.copyload.i.i.i = load i64, ptr %1, align 8
  %3 = icmp slt i64 %.0.copyload.i.i.i, 0
  br i1 %3, label %_ZN11hwf_manager6is_posERK3hwf.exit.thread, label %_ZN11hwf_manager6is_posERK3hwf.exit

_ZN11hwf_manager6is_posERK3hwf.exit:              ; preds = %2
  %4 = and i64 %.0.copyload.i.i.i, 9218868437227405312
  %5 = icmp ne i64 %4, 9218868437227405312
  %6 = and i64 %.0.copyload.i.i.i, 4503599627370495
  %7 = icmp eq i64 %6, 0
  %.not4.i = or i1 %5, %7
  br i1 %.not4.i, label %8, label %_ZN11hwf_manager6is_posERK3hwf.exit.thread

8:                                                ; preds = %_ZN11hwf_manager6is_posERK3hwf.exit
  %9 = lshr i64 %.0.copyload.i.i.i, 52
  %10 = trunc nuw nsw i64 %9 to i32
  %11 = icmp samesign ult i64 %.0.copyload.i.i.i, 4377498837804122112
  %12 = add nsw i32 %10, -972
  %spec.select = select i1 %11, i32 0, i32 %12
  br label %_ZN11hwf_manager6is_posERK3hwf.exit.thread

_ZN11hwf_manager6is_posERK3hwf.exit.thread:       ; preds = %8, %2, %_ZN11hwf_manager6is_posERK3hwf.exit
  %.0 = phi i32 [ 0, %_ZN11hwf_manager6is_posERK3hwf.exit ], [ 0, %2 ], [ %spec.select, %8 ]
  ret i32 %.0
}